Certificate:
    Data:
        Version: 3 (0x2)
        Serial Number: 2 (0x2)
        Signature Algorithm: md5WithRSAEncryption
        Issuer: C=AT, ST=VIE, L=Vienna, O=angel0r, CN=paranoid/emailAddress=al@rechenknecht.net
        Validity
            Not Before: Dec 18 15:57:15 2005 GMT
            Not After : Dec 16 15:57:15 2015 GMT
        Subject: C=AT, ST=VIE, L=Vienna, O=angel0r, CN=turion/emailAddress=al@rechenknecht.net
        Subject Public Key Info:
            Public Key Algorithm: rsaEncryption
            RSA Public Key: (2048 bit)
                Modulus (2048 bit):
                    00:98:6c:6e:3e:80:2c:c0:75:9a:e8:6d:a0:9b:96:
                    b4:ef:42:5f:96:2b:ec:68:54:a0:9b:8e:fa:63:6c:
                    84:5a:96:88:cc:61:e9:e8:39:f4:f3:f3:ab:9e:be:
                    31:00:e4:4b:0c:d3:5f:37:2b:ba:16:38:a8:f0:0e:
                    d4:69:9b:14:0a:17:92:de:40:d6:f0:29:fb:90:67:
                    39:53:72:1d:e6:7d:70:f2:11:40:87:99:f9:5a:75:
                    9f:d9:e2:8e:af:77:eb:48:68:b2:6a:da:75:c2:33:
                    c5:38:3d:05:e4:85:94:1e:c9:85:91:95:3a:77:27:
                    dc:63:67:a6:e8:37:dc:fd:f7:74:e5:69:43:71:fe:
                    73:3b:34:6d:dd:0d:29:e4:08:ba:70:7c:b7:10:4b:
                    2d:28:e3:a5:94:7f:45:6b:5c:ff:5a:f6:5d:1c:b6:
                    d8:c3:8c:74:26:c7:97:bb:c1:30:88:22:46:c8:0b:
                    fa:a3:ed:75:07:8d:bf:2f:ad:04:69:d0:3b:69:de:
                    f9:e8:bb:2c:64:f7:5d:b6:43:58:bf:d4:93:7b:0b:
                    4e:a6:38:d8:a0:93:d1:24:8d:5e:3f:ec:76:58:d7:
                    73:b6:8d:d8:bb:61:8f:f3:ff:b6:08:93:ac:23:f1:
                    43:5d:9b:c2:3f:0d:73:c0:5f:6a:df:bb:9e:00:b4:
                    a5:cf
                Exponent: 65537 (0x10001)
        X509v3 extensions:
            X509v3 Basic Constraints: 
                CA:FALSE
            Netscape Comment: 
                OpenSSL Generated Certificate
            X509v3 Subject Key Identifier: 
                F5:57:26:3A:86:63:55:D5:B7:D6:95:BC:B5:6B:34:F7:B8:6D:BA:C3
            X509v3 Authority Key Identifier: 
                keyid:8D:4B:7D:48:37:F6:56:87:46:68:B6:C1:48:DD:04:36:F1:F6:E9:5C
                DirName:/C=AT/ST=VIE/L=Vienna/O=angel0r/CN=paranoid/emailAddress=al@rechenknecht.net
                serial:DA:DD:BE:45:40:60:54:03

    Signature Algorithm: md5WithRSAEncryption
        b1:d0:08:e9:9d:8d:00:78:63:8e:6b:8f:d4:a6:b4:df:83:04:
        22:4f:d7:6e:bc:cb:d3:bc:39:51:c8:1f:01:82:00:22:25:89:
        7f:95:58:d2:1d:11:56:e9:a9:5d:2b:84:d4:ec:8c:74:3e:1c:
        e1:11:05:61:e3:29:5f:18:44:81:f2:07:26:6f:34:09:93:b1:
        80:0c:e6:cc:3c:94:56:76:89:08:c4:85:15:18:f7:70:8d:f5:
        c7:70:15:b5:46:4f:12:8b:06:b0:74:42:19:57:36:22:e4:81:
        76:8f:8d:61:c6:58:98:98:97:49:05:a3:4c:c2:2c:bb:a1:96:
        72:c2:eb:08:c3:ee:fe:79:0a:b2:c3:80:c0:91:cb:24:60:82:
        43:82:7f:42:91:19:0a:18:1c:53:ed:4f:3f:a0:b2:b7:68:cb:
        7e:ad:ad:78:33:db:0a:8f:79:97:0b:c3:f2:bf:52:a4:61:8b:
        3f:c5:58:72:cf:db:49:4b:1d:87:5c:81:ab:2a:41:ac:5d:2c:
        96:22:bc:c4:89:56:6b:ae:b6:da:e1:a1:02:51:55:cc:eb:64:
        9e:51:cd:7a:96:4c:68:d0:be:ab:3c:5f:2d:74:6d:ea:8c:28:
        37:38:d7:02:7b:68:c2:e0:67:f5:66:d5:ba:d2:32:7b:82:fa:
        03:06:23:41
-----BEGIN CERTIFICATE-----
MIIEazCCA1OgAwIBAgIBAjANBgkqhkiG9w0BAQQFADB1MQswCQYDVQQGEwJBVDEM
MAoGA1UECBMDVklFMQ8wDQYDVQQHEwZWaWVubmExEDAOBgNVBAoTB2FuZ2VsMHIx
ETAPBgNVBAMTCHBhcmFub2lkMSIwIAYJKoZIhvcNAQkBFhNhbEByZWNoZW5rbmVj
aHQubmV0MB4XDTA1MTIxODE1NTcxNVoXDTE1MTIxNjE1NTcxNVowczELMAkGA1UE
BhMCQVQxDDAKBgNVBAgTA1ZJRTEPMA0GA1UEBxMGVmllbm5hMRAwDgYDVQQKEwdh
bmdlbDByMQ8wDQYDVQQDEwZ0dXJpb24xIjAgBgkqhkiG9w0BCQEWE2FsQHJlY2hl
bmtuZWNodC5uZXQwggEiMA0GCSqGSIb3DQEBAQUAA4IBDwAwggEKAoIBAQCYbG4+
gCzAdZrobaCblrTvQl+WK+xoVKCbjvpjbIRalojMYenoOfTz86uevjEA5EsM0183
K7oWOKjwDtRpmxQKF5LeQNbwKfuQZzlTch3mfXDyEUCHmfladZ/Z4o6vd+tIaLJq
2nXCM8U4PQXkhZQeyYWRlTp3J9xjZ6boN9z993TlaUNx/nM7NG3dDSnkCLpwfLcQ
Sy0o46WUf0VrXP9a9l0cttjDjHQmx5e7wTCIIkbIC/qj7XUHjb8vrQRp0Dtp3vno
uyxk9122Q1i/1JN7C06mONigk9EkjV4/7HZY13O2jdi7YY/z/7YIk6wj8UNdm8I/
DXPAX2rfu54AtKXPAgMBAAGjggEGMIIBAjAJBgNVHRMEAjAAMCwGCWCGSAGG+EIB
DQQfFh1PcGVuU1NMIEdlbmVyYXRlZCBDZXJ0aWZpY2F0ZTAdBgNVHQ4EFgQU9Vcm
OoZjVdW31pW8tWs097htusMwgacGA1UdIwSBnzCBnIAUjUt9SDf2VodGaLbBSN0E
NvH26VyheaR3MHUxCzAJBgNVBAYTAkFUMQwwCgYDVQQIEwNWSUUxDzANBgNVBAcT
BlZpZW5uYTEQMA4GA1UEChMHYW5nZWwwcjERMA8GA1UEAxMIcGFyYW5vaWQxIjAg
BgkqhkiG9w0BCQEWE2FsQHJlY2hlbmtuZWNodC5uZXSCCQDa3b5FQGBUAzANBgkq
hkiG9w0BAQQFAAOCAQEAsdAI6Z2NAHhjjmuP1Ka034MEIk/XbrzL07w5UcgfAYIA
IiWJf5VY0h0RVumpXSuE1OyMdD4c4REFYeMpXxhEgfIHJm80CZOxgAzmzDyUVnaJ
CMSFFRj3cI31x3AVtUZPEosGsHRCGVc2IuSBdo+NYcZYmJiXSQWjTMIsu6GWcsLr
CMPu/nkKssOAwJHLJGCCQ4J/QpEZChgcU+1PP6Cyt2jLfq2teDPbCo95lwvD8r9S
pGGLP8VYcs/bSUsdh1yBqypBrF0sliK8xIlWa6622uGhAlFVzOtknlHNepZMaNC+
qzxfLXRt6owoNzjXAntowuBn9WbVutIye4L6AwYjQQ==
-----END CERTIFICATE-----
